target datalayout = "e-m:e-p270:32:32-p271:32:32-p272:64:64-i64:64-i128:128-f80:128-n8:16:32:64-S128"
target triple = "x86_64-pc-linux-gnu"

%"class.clang::interp::InterpState" = type { %"class.clang::interp::State.base", %"class.clang::interp::SourceMapper", ptr, ptr, ptr, %"class.clang::interp::DynamicAllocator", ptr, ptr, ptr, ptr, %"class.clang::SourceLocation", ptr, %"class.llvm::SmallVector.6" }
%"class.clang::interp::State.base" = type <{ ptr, i8 }>
%"class.clang::interp::SourceMapper" = type { ptr }
%"class.clang::interp::DynamicAllocator" = type { %"class.llvm::DenseMap", %"class.llvm::BumpPtrAllocatorImpl" }
%"class.llvm::DenseMap" = type <{ ptr, i32, i32, i32, [4 x i8] }>
%"class.llvm::BumpPtrAllocatorImpl" = type { ptr, ptr, %"class.llvm::SmallVector", %"class.llvm::SmallVector.1", i64, i64 }
%"class.llvm::SmallVector" = type { %"class.llvm::SmallVectorImpl", %"struct.llvm::SmallVectorStorage" }
%"class.llvm::SmallVectorImpl" = type { %"class.llvm::SmallVectorTemplateBase" }
%"class.llvm::SmallVectorTemplateBase" = type { %"class.llvm::SmallVectorTemplateCommon" }
%"class.llvm::SmallVectorTemplateCommon" = type { %"class.llvm::SmallVectorBase" }
%"class.llvm::SmallVectorBase" = type { ptr, i32, i32 }
%"struct.llvm::SmallVectorStorage" = type { [32 x i8] }
%"class.llvm::SmallVector.1" = type { %"class.llvm::SmallVectorImpl.2" }
%"class.llvm::SmallVectorImpl.2" = type { %"class.llvm::SmallVectorTemplateBase.3" }
%"class.llvm::SmallVectorTemplateBase.3" = type { %"class.llvm::SmallVectorTemplateCommon.4" }
%"class.llvm::SmallVectorTemplateCommon.4" = type { %"class.llvm::SmallVectorBase" }
%"class.clang::SourceLocation" = type { i32 }
%"class.llvm::SmallVector.6" = type { %"class.llvm::SmallVectorImpl.7", %"struct.llvm::SmallVectorStorage.10" }
%"class.llvm::SmallVectorImpl.7" = type { %"class.llvm::SmallVectorTemplateBase.8" }
%"class.llvm::SmallVectorTemplateBase.8" = type { %"class.llvm::SmallVectorTemplateCommon.9" }
%"class.llvm::SmallVectorTemplateCommon.9" = type { %"class.llvm::SmallVectorBase" }
%"struct.llvm::SmallVectorStorage.10" = type { [48 x i8] }
%"class.clang::interp::Pointer" = type <{ i64, ptr, ptr, %union.anon, i32, [4 x i8] }>
%union.anon = type { %"struct.clang::interp::BlockPointer", [8 x i8] }
%"struct.clang::interp::BlockPointer" = type { ptr, i32 }
%"class.clang::interp::DeadBlock" = type { ptr, ptr, ptr, %"class.clang::interp::Block" }
%"class.clang::interp::Block" = type { i32, ptr, %"class.std::optional", i8, i8, i8, i8, i8, ptr }
%"class.std::optional" = type { %"struct.std::_Optional_base" }
%"struct.std::_Optional_base" = type { %"struct.std::_Optional_payload" }
%"struct.std::_Optional_payload" = type { %"struct.std::_Optional_payload_base.base", [3 x i8] }
%"struct.std::_Optional_payload_base.base" = type <{ %"union.std::_Optional_payload_base<unsigned int>::_Storage", i8 }>
%"union.std::_Optional_payload_base<unsigned int>::_Storage" = type { i32 }

; Function Attrs: mustprogress nounwind uwtable
define dso_local void @_ZN5clang6interp11InterpState7cleanupEv(ptr noundef nonnull align 8 dereferenceable(280) %0) #0 align 2 {
  %2 = alloca ptr, align 8
  %3 = alloca ptr, align 8
  %4 = alloca ptr, align 8
  store ptr %0, ptr %2, align 8
  %5 = load ptr, ptr %2, align 8
  %6 = getelementptr inbounds nuw %"class.clang::interp::InterpState", ptr %5, i32 0, i32 3
  %7 = load ptr, ptr %6, align 8
  store ptr %7, ptr %3, align 8
  br label %8

8:                                                ; preds = %28, %1
  %9 = load ptr, ptr %3, align 8
  %10 = icmp ne ptr %9, null
  br i1 %10, label %11, label %32

11:                                               ; preds = %8
  %12 = load ptr, ptr %3, align 8
  %13 = getelementptr inbounds nuw %"class.clang::interp::DeadBlock", ptr %12, i32 0, i32 3
  %14 = getelementptr inbounds nuw %"class.clang::interp::Block", ptr %13, i32 0, i32 1
  %15 = load ptr, ptr %14, align 8
  store ptr %15, ptr %4, align 8
  br label %16

16:                                               ; preds = %23, %11
  %17 = load ptr, ptr %4, align 8
  %18 = icmp ne ptr %17, null
  br i1 %18, label %19, label %27

19:                                               ; preds = %16
  %20 = load ptr, ptr %4, align 8
  %21 = getelementptr inbounds nuw %"class.clang::interp::Pointer", ptr %20, i32 0, i32 3
  %22 = getelementptr inbounds nuw %"struct.clang::interp::BlockPointer", ptr %21, i32 0, i32 0
  store ptr null, ptr %22, align 8
  br label %23

23:                                               ; preds = %19
  %24 = load ptr, ptr %4, align 8
  %25 = getelementptr inbounds nuw %"class.clang::interp::Pointer", ptr %24, i32 0, i32 2
  %26 = load ptr, ptr %25, align 8
  store ptr %26, ptr %4, align 8
  br label %16, !llvm.loop !7

27:                                               ; preds = %16
  br label %28

28:                                               ; preds = %27
  %29 = load ptr, ptr %3, align 8
  %30 = getelementptr inbounds nuw %"class.clang::interp::DeadBlock", ptr %29, i32 0, i32 2
  %31 = load ptr, ptr %30, align 8
  store ptr %31, ptr %3, align 8
  br label %8, !llvm.loop !8

32:                                               ; preds = %8
  %33 = getelementptr inbounds nuw %"class.clang::interp::InterpState", ptr %5, i32 0, i32 5
  call void @_ZN5clang6interp16DynamicAllocator7cleanupEv(ptr noundef nonnull align 8 dereferenceable(120) %33)
  ret void
}