; Function Attrs: mustprogress nounwind uwtable
define dso_local void @_ZN5clang6interp11InterpState7cleanupEv(ptr noundef nonnull align 8 dereferenceable(280) %0) local_unnamed_addr #0 align 2 {
  %2 = getelementptr inbounds nuw i8, ptr %0, i64 32
  %.0712 = load ptr, ptr %2, align 8
  %.not13 = icmp eq ptr %.0712, null
  br i1 %.not13, label %._crit_edge17, label %.lr.ph16

.lr.ph16:                                         ; preds = %1, %._crit_edge
  %.0714 = phi ptr [ %.07, %._crit_edge ], [ %.0712, %1 ]
  %3 = getelementptr inbounds i8, ptr %.0714, i64 32
  %.09 = load ptr, ptr %3, align 8
  %.not810 = icmp eq ptr %.09, null
  br i1 %.not810, label %._crit_edge, label %.lr.ph

.lr.ph:                                           ; preds = %.lr.ph16, %.lr.ph
  %.011 = phi ptr [ %.0, %.lr.ph ], [ %.09, %.lr.ph16 ]
  %4 = getelementptr inbounds nuw i8, ptr %.011, i64 24
  store ptr null, ptr %4, align 8
  %5 = getelementptr inbounds nuw i8, ptr %.011, i64 16
  %.0 = load ptr, ptr %5, align 8
  %.not8 = icmp eq ptr %.0, null
  br i1 %.not8, label %._crit_edge, label %.lr.ph, !llvm.loop !7

._crit_edge:                                      ; preds = %.lr.ph, %.lr.ph16
  %6 = getelementptr inbounds nuw i8, ptr %.0714, i64 16
  %.07 = load ptr, ptr %6, align 8
  %.not = icmp eq ptr %.07, null
  br i1 %.not, label %._crit_edge17, label %.lr.ph16, !llvm.loop !8

._crit_edge17:                                    ; preds = %._crit_edge, %1
  %7 = getelementptr inbounds nuw i8, ptr %0, i64 48
  tail call void @_ZN5clang6interp16DynamicAllocator7cleanupEv(ptr noundef nonnull align 8 dereferenceable(120) %7) #12
  ret void
}